ccopy_reg
_reconstructor
p0
(csklearn.svm.classes
LinearSVC
p1
c__builtin__
object
p2
Ntp3
Rp4
(dp5
S'loss'
p6
S'squared_hinge'
p7
sS'C'
p8
F1.0
sS'max_iter'
p9
I1000
sS'class_weight'
p10
NsS'verbose'
p11
I0
sS'fit_intercept'
p12
I01
sS'classes_'
p13
cnumpy.core.multiarray
_reconstruct
p14
(cnumpy
ndarray
p15
(I0
tp16
S'b'
p17
tp18
Rp19
(I1
(L2L
tp20
cnumpy
dtype
p21
(S'f8'
p22
I0
I1
tp23
Rp24
(I3
S'<'
p25
NNNI-1
I-1
I0
tp26
bI00
S'\x00\x00\x00\x00\x00\x00\x00\x00\x00\x00\x00\x00\x00\x00\xf0?'
p27
tp28
bsS'n_iter_'
p29
cnumpy.core.multiarray
scalar
p30
(g21
(S'i4'
p31
I0
I1
tp32
Rp33
(I3
S'<'
p34
NNNI-1
I-1
I0
tp35
bS'\x94\x00\x00\x00'
p36
tp37
Rp38
sS'penalty'
p39
S'l2'
p40
sS'multi_class'
p41
S'ovr'
p42
sS'random_state'
p43
NsS'_sklearn_version'
p44
S'0.18.1'
p45
sS'dual'
p46
I01
sS'tol'
p47
F0.0001
sS'coef_'
p48
g14
(g15
(I0
tp49
g17
tp50
Rp51
(I1
(L1L
L5L
tp52
g24
I01
S'G\xad\xa1\xaaG\xe3\xe5?\xe4-u3\x1b\xe4\x00@\xa6\xe1P\xa4\x08\xd3\x0e\xc0\x1a\xec\xb0\xd37\xa6\xe2?\n\xae\xd2\x8c\x8a\x1b\xee\xbf'
p53
tp54
bsS'intercept_'
p55
g14
(g15
(I0
tp56
g17
tp57
Rp58
(I1
(L1L
tp59
g24
I00
S'4\xe4-\xc7\xf5\x8d\xe7\xbf'
p60
tp61
bsS'intercept_scaling'
p62
I1
sb.